; ModuleID = '47/2871.c'
source_filename = "47/2871.c"
target datalayout = "e-m:e-p270:32:32-p271:32:32-p272:64:64-i64:64-f80:128-n8:16:32:64-S128"
target triple = "x86_64-pc-linux-gnu"

@.str = private unnamed_addr constant [3 x i8] c"%d\00", align 1
@.str.1 = private unnamed_addr constant [4 x i8] c" %d\00", align 1

; Function Attrs: noinline nounwind uwtable
define dso_local i32 @main() #0 {
  %1 = alloca i32, align 4
  %2 = alloca i32, align 4
  %3 = alloca [101 x i32], align 16
  %4 = alloca i32*, align 8
  store i32 0, i32* %1, align 4
  %5 = call i32 (i8*, ...) @__isoc99_scanf(i8* getelementptr inbounds ([3 x i8], [3 x i8]* @.str, i64 0, i64 0), i32* %2)
  %6 = getelementptr inbounds [101 x i32], [101 x i32]* %3, i64 0, i64 0
  store i32* %6, i32** %4, align 8
  br label %7

7:                                                ; preds = %18, %0
  %8 = load i32*, i32** %4, align 8
  %9 = getelementptr inbounds [101 x i32], [101 x i32]* %3, i64 0, i64 0
  %10 = load i32, i32* %2, align 4
  %11 = sext i32 %10 to i64
  %12 = getelementptr inbounds i32, i32* %9, i64 %11
  %13 = getelementptr inbounds i32, i32* %12, i64 -1
  %14 = icmp ule i32* %8, %13
  br i1 %14, label %15, label %21

15:                                               ; preds = %7
  %16 = load i32*, i32** %4, align 8
  %17 = call i32 (i8*, ...) @__isoc99_scanf(i8* getelementptr inbounds ([3 x i8], [3 x i8]* @.str, i64 0, i64 0), i32* %16)
  br label %18

18:                                               ; preds = %15
  %19 = load i32*, i32** %4, align 8
  %20 = getelementptr inbounds i32, i32* %19, i32 1
  store i32* %20, i32** %4, align 8
  br label %7

21:                                               ; preds = %7
  %22 = getelementptr inbounds [101 x i32], [101 x i32]* %3, i64 0, i64 0
  %23 = load i32, i32* %2, align 4
  %24 = sext i32 %23 to i64
  %25 = getelementptr inbounds i32, i32* %22, i64 %24
  %26 = getelementptr inbounds i32, i32* %25, i64 -1
  store i32* %26, i32** %4, align 8
  %27 = load i32*, i32** %4, align 8
  %28 = load i32, i32* %27, align 4
  %29 = call i32 (i8*, ...) @printf(i8* getelementptr inbounds ([3 x i8], [3 x i8]* @.str, i64 0, i64 0), i32 %28)
  %30 = getelementptr inbounds [101 x i32], [101 x i32]* %3, i64 0, i64 0
  %31 = load i32, i32* %2, align 4
  %32 = sext i32 %31 to i64
  %33 = getelementptr inbounds i32, i32* %30, i64 %32
  %34 = getelementptr inbounds i32, i32* %33, i64 -2
  store i32* %34, i32** %4, align 8
  br label %35

35:                                               ; preds = %43, %21
  %36 = load i32*, i32** %4, align 8
  %37 = getelementptr inbounds [101 x i32], [101 x i32]* %3, i64 0, i64 0
  %38 = icmp uge i32* %36, %37
  br i1 %38, label %39, label %46

39:                                               ; preds = %35
  %40 = load i32*, i32** %4, align 8
  %41 = load i32, i32* %40, align 4
  %42 = call i32 (i8*, ...) @printf(i8* getelementptr inbounds ([4 x i8], [4 x i8]* @.str.1, i64 0, i64 0), i32 %41)
  br label %43

43:                                               ; preds = %39
  %44 = load i32*, i32** %4, align 8
  %45 = getelementptr inbounds i32, i32* %44, i32 -1
  store i32* %45, i32** %4, align 8
  br label %35

46:                                               ; preds = %35
  ret i32 0
}

declare dso_local i32 @__isoc99_scanf(i8*, ...) #1

declare dso_local i32 @printf(i8*, ...) #1


!llvm.module.flags = !{!0}
!llvm.ident = !{!1}

!0 = !{i32 1, !"wchar_size", i32 4}
!1 = !{!"clang version 10.0.0-4ubuntu1 "}
