; ModuleID = 'source-C-CXX/46/2871.c'
source_filename = "source-C-CXX/46/2871.c"
target datalayout = "e-m:e-p270:32:32-p271:32:32-p272:64:64-i64:64-f80:128-n8:16:32:64-S128"
target triple = "x86_64-pc-linux-gnu"

@.str = private unnamed_addr constant [3 x i8] c"%d\00", align 1
@.str.1 = private unnamed_addr constant [4 x i8] c" %d\00", align 1

; Function Attrs: nofree nounwind sspstrong uwtable
define dso_local i32 @main() local_unnamed_addr #0 {
  %1 = alloca i32, align 4
  %2 = alloca [101 x i32], align 16
  %3 = bitcast i32* %1 to i8*
  call void @llvm.lifetime.start.p0i8(i64 4, i8* nonnull %3) #3
  %4 = bitcast [101 x i32]* %2 to i8*
  call void @llvm.lifetime.start.p0i8(i64 404, i8* nonnull %4) #3
  %5 = call i32 (i8*, ...) @__isoc99_scanf(i8* getelementptr inbounds ([3 x i8], [3 x i8]* @.str, i64 0, i64 0), i32* nonnull %1)
  %6 = getelementptr inbounds [101 x i32], [101 x i32]* %2, i64 0, i64 0
  %7 = load i32, i32* %1, align 4, !tbaa !5
  %8 = sext i32 %7 to i64
  %9 = getelementptr inbounds [101 x i32], [101 x i32]* %2, i64 0, i64 %8
  %10 = getelementptr inbounds i32, i32* %9, i64 -1
  %11 = icmp ugt i32* %6, %10
  br i1 %11, label %23, label %12

12:                                               ; preds = %0, %12
  %13 = phi i32* [ %15, %12 ], [ %6, %0 ]
  %14 = call i32 (i8*, ...) @__isoc99_scanf(i8* getelementptr inbounds ([3 x i8], [3 x i8]* @.str, i64 0, i64 0), i32* nonnull %13)
  %15 = getelementptr inbounds i32, i32* %13, i64 1
  %16 = load i32, i32* %1, align 4, !tbaa !5
  %17 = sext i32 %16 to i64
  %18 = getelementptr inbounds [101 x i32], [101 x i32]* %2, i64 0, i64 %17
  %19 = getelementptr inbounds i32, i32* %18, i64 -1
  %20 = icmp ugt i32* %15, %19
  br i1 %20, label %21, label %12, !llvm.loop !9

21:                                               ; preds = %12
  %22 = load i32, i32* %19, align 4, !tbaa !5
  br label %23

23:                                               ; preds = %21, %0
  %24 = phi i32 [ undef, %0 ], [ %22, %21 ]
  %25 = call i32 (i8*, ...) @printf(i8* nonnull dereferenceable(1) getelementptr inbounds ([3 x i8], [3 x i8]* @.str, i64 0, i64 0), i32 %24)
  %26 = load i32, i32* %1, align 4, !tbaa !5
  %27 = sext i32 %26 to i64
  %28 = getelementptr inbounds [101 x i32], [101 x i32]* %2, i64 0, i64 %27
  %29 = getelementptr inbounds i32, i32* %28, i64 -2
  %30 = icmp ult i32* %29, %6
  br i1 %30, label %37, label %31

31:                                               ; preds = %23, %31
  %32 = phi i32* [ %35, %31 ], [ %29, %23 ]
  %33 = load i32, i32* %32, align 4, !tbaa !5
  %34 = call i32 (i8*, ...) @printf(i8* nonnull dereferenceable(1) getelementptr inbounds ([4 x i8], [4 x i8]* @.str.1, i64 0, i64 0), i32 %33)
  %35 = getelementptr inbounds i32, i32* %32, i64 -1
  %36 = icmp ult i32* %35, %6
  br i1 %36, label %37, label %31, !llvm.loop !11

37:                                               ; preds = %31, %23
  call void @llvm.lifetime.end.p0i8(i64 404, i8* nonnull %4) #3
  call void @llvm.lifetime.end.p0i8(i64 4, i8* nonnull %3) #3
  ret i32 0
}

; Function Attrs: argmemonly mustprogress nofree nosync nounwind willreturn
declare void @llvm.lifetime.start.p0i8(i64 immarg, i8* nocapture) #1

; Function Attrs: nofree nounwind
declare noundef i32 @__isoc99_scanf(i8* nocapture noundef readonly, ...) local_unnamed_addr #2

; Function Attrs: nofree nounwind
declare noundef i32 @printf(i8* nocapture noundef readonly, ...) local_unnamed_addr #2

; Function Attrs: argmemonly mustprogress nofree nosync nounwind willreturn
declare void @llvm.lifetime.end.p0i8(i64 immarg, i8* nocapture) #1


!llvm.module.flags = !{!0, !1, !2, !3}
!llvm.ident = !{!4}

!0 = !{i32 1, !"wchar_size", i32 4}
!1 = !{i32 7, !"PIC Level", i32 2}
!2 = !{i32 7, !"PIE Level", i32 2}
!3 = !{i32 7, !"uwtable", i32 1}
!4 = !{!"clang version 13.0.0"}
!5 = !{!6, !6, i64 0}
!6 = !{!"int", !7, i64 0}
!7 = !{!"omnipotent char", !8, i64 0}
!8 = !{!"Simple C/C++ TBAA"}
!9 = distinct !{!9, !10}
!10 = !{!"llvm.loop.mustprogress"}
!11 = distinct !{!11, !10}
